target datalayout = "e-m:e-p270:32:32-p271:32:32-p272:64:64-i64:64-i128:128-f80:128-n8:16:32:64-S128"
target triple = "x86_64-pc-linux-gnu"

%struct.asn1_string_st = type { i32, i32, ptr, i64 }

@.str = private unnamed_addr constant [32 x i8] c"../openssl/crypto/x509/v3_utl.c\00", align 1

; Function Attrs: nounwind uwtable
define internal i32 @do_check_string(ptr noundef %0, i32 noundef %1, ptr noundef %2, i32 noundef %3, ptr noundef %4, i64 noundef %5, ptr noundef %6) #0 {
  %8 = alloca i32, align 4
  %9 = alloca ptr, align 8
  %10 = alloca i32, align 4
  %11 = alloca ptr, align 8
  %12 = alloca i32, align 4
  %13 = alloca ptr, align 8
  %14 = alloca i64, align 8
  %15 = alloca ptr, align 8
  %16 = alloca i32, align 4
  %17 = alloca i32, align 4
  %18 = alloca i32, align 4
  %19 = alloca ptr, align 8
  store ptr %0, ptr %9, align 8, !tbaa !23
  store i32 %1, ptr %10, align 4, !tbaa !15
  store ptr %2, ptr %11, align 8, !tbaa !12
  store i32 %3, ptr %12, align 4, !tbaa !15
  store ptr %4, ptr %13, align 8, !tbaa !3
  store i64 %5, ptr %14, align 8, !tbaa !10
  store ptr %6, ptr %15, align 8, !tbaa !71
  call void @llvm.lifetime.start.p0(i64 4, ptr %16) #8
  store i32 0, ptr %16, align 4, !tbaa !15
  %20 = load ptr, ptr %9, align 8, !tbaa !23
  %21 = getelementptr inbounds nuw %struct.asn1_string_st, ptr %20, i32 0, i32 2
  %22 = load ptr, ptr %21, align 8, !tbaa !65
  %23 = icmp ne ptr %22, null
  br i1 %23, label %24, label %29

24:                                               ; preds = %7
  %25 = load ptr, ptr %9, align 8, !tbaa !23
  %26 = getelementptr inbounds nuw %struct.asn1_string_st, ptr %25, i32 0, i32 0
  %27 = load i32, ptr %26, align 8, !tbaa !66
  %28 = icmp ne i32 %27, 0
  br i1 %28, label %30, label %29

29:                                               ; preds = %24, %7
  store i32 0, ptr %8, align 4
  store i32 1, ptr %17, align 4
  br label %134

30:                                               ; preds = %24
  %31 = load i32, ptr %10, align 4, !tbaa !15
  %32 = icmp sgt i32 %31, 0
  br i1 %32, label %33, label %95

33:                                               ; preds = %30
  %34 = load i32, ptr %10, align 4, !tbaa !15
  %35 = load ptr, ptr %9, align 8, !tbaa !23
  %36 = getelementptr inbounds nuw %struct.asn1_string_st, ptr %35, i32 0, i32 1
  %37 = load i32, ptr %36, align 4, !tbaa !28
  %38 = icmp ne i32 %34, %37
  br i1 %38, label %39, label %40

39:                                               ; preds = %33
  store i32 0, ptr %8, align 4
  store i32 1, ptr %17, align 4
  br label %134

40:                                               ; preds = %33
  %41 = load i32, ptr %10, align 4, !tbaa !15
  %42 = icmp eq i32 %41, 22
  br i1 %42, label %43, label %56

43:                                               ; preds = %40
  %44 = load ptr, ptr %11, align 8, !tbaa !12
  %45 = load ptr, ptr %9, align 8, !tbaa !23
  %46 = getelementptr inbounds nuw %struct.asn1_string_st, ptr %45, i32 0, i32 2
  %47 = load ptr, ptr %46, align 8, !tbaa !65
  %48 = load ptr, ptr %9, align 8, !tbaa !23
  %49 = getelementptr inbounds nuw %struct.asn1_string_st, ptr %48, i32 0, i32 0
  %50 = load i32, ptr %49, align 8, !tbaa !66
  %51 = sext i32 %50 to i64
  %52 = load ptr, ptr %13, align 8, !tbaa !3
  %53 = load i64, ptr %14, align 8, !tbaa !10
  %54 = load i32, ptr %12, align 4, !tbaa !15
  %55 = call i32 %44(ptr noundef %47, i64 noundef %51, ptr noundef %52, i64 noundef %53, i32 noundef %54)
  store i32 %55, ptr %16, align 4, !tbaa !15
  br label %73

56:                                               ; preds = %40
  %57 = load ptr, ptr %9, align 8, !tbaa !23
  %58 = getelementptr inbounds nuw %struct.asn1_string_st, ptr %57, i32 0, i32 0
  %59 = load i32, ptr %58, align 8, !tbaa !66
  %60 = load i64, ptr %14, align 8, !tbaa !10
  %61 = trunc i64 %60 to i32
  %62 = icmp eq i32 %59, %61
  br i1 %62, label %63, label %72

63:                                               ; preds = %56
  %64 = load ptr, ptr %9, align 8, !tbaa !23
  %65 = getelementptr inbounds nuw %struct.asn1_string_st, ptr %64, i32 0, i32 2
  %66 = load ptr, ptr %65, align 8, !tbaa !65
  %67 = load ptr, ptr %13, align 8, !tbaa !3
  %68 = load i64, ptr %14, align 8, !tbaa !10
  %69 = call i32 @memcmp(ptr noundef %66, ptr noundef %67, i64 noundef %68) #7
  %70 = icmp ne i32 %69, 0
  br i1 %70, label %72, label %71

71:                                               ; preds = %63
  store i32 1, ptr %16, align 4, !tbaa !15
  br label %72

72:                                               ; preds = %71, %63, %56
  br label %73

73:                                               ; preds = %72, %43
  %74 = load i32, ptr %16, align 4, !tbaa !15
  %75 = icmp sgt i32 %74, 0
  br i1 %75, label %76, label %94

76:                                               ; preds = %73
  %77 = load ptr, ptr %15, align 8, !tbaa !71
  %78 = icmp ne ptr %77, null
  br i1 %78, label %79, label %94

79:                                               ; preds = %76
  %80 = load ptr, ptr %9, align 8, !tbaa !23
  %81 = getelementptr inbounds nuw %struct.asn1_string_st, ptr %80, i32 0, i32 2
  %82 = load ptr, ptr %81, align 8, !tbaa !65
  %83 = load ptr, ptr %9, align 8, !tbaa !23
  %84 = getelementptr inbounds nuw %struct.asn1_string_st, ptr %83, i32 0, i32 0
  %85 = load i32, ptr %84, align 8, !tbaa !66
  %86 = sext i32 %85 to i64
  %87 = call noalias ptr @CRYPTO_strndup(ptr noundef %82, i64 noundef %86, ptr noundef @.str, i32 noundef 848)
  %88 = load ptr, ptr %15, align 8, !tbaa !71
  store ptr %87, ptr %88, align 8, !tbaa !3
  %89 = load ptr, ptr %15, align 8, !tbaa !71
  %90 = load ptr, ptr %89, align 8, !tbaa !3
  %91 = icmp eq ptr %90, null
  br i1 %91, label %92, label %93

92:                                               ; preds = %79
  store i32 -1, ptr %8, align 4
  store i32 1, ptr %17, align 4
  br label %134

93:                                               ; preds = %79
  br label %94

94:                                               ; preds = %93, %76, %73
  br label %132

95:                                               ; preds = %30
  call void @llvm.lifetime.start.p0(i64 4, ptr %18) #8
  call void @llvm.lifetime.start.p0(i64 8, ptr %19) #8
  %96 = load ptr, ptr %9, align 8, !tbaa !23
  %97 = call i32 @ASN1_STRING_to_UTF8(ptr noundef %19, ptr noundef %96)
  store i32 %97, ptr %18, align 4, !tbaa !15
  %98 = load i32, ptr %18, align 4, !tbaa !15
  %99 = icmp slt i32 %98, 0
  br i1 %99, label %100, label %101

100:                                              ; preds = %95
  store i32 -1, ptr %8, align 4
  store i32 1, ptr %17, align 4
  br label %129

101:                                              ; preds = %95
  %102 = load ptr, ptr %11, align 8, !tbaa !12
  %103 = load ptr, ptr %19, align 8, !tbaa !3
  %104 = load i32, ptr %18, align 4, !tbaa !15
  %105 = sext i32 %104 to i64
  %106 = load ptr, ptr %13, align 8, !tbaa !3
  %107 = load i64, ptr %14, align 8, !tbaa !10
  %108 = load i32, ptr %12, align 4, !tbaa !15
  %109 = call i32 %102(ptr noundef %103, i64 noundef %105, ptr noundef %106, i64 noundef %107, i32 noundef %108)
  store i32 %109, ptr %16, align 4, !tbaa !15
  %110 = load i32, ptr %16, align 4, !tbaa !15
  %111 = icmp sgt i32 %110, 0
  br i1 %111, label %112, label %127

112:                                              ; preds = %101
  %113 = load ptr, ptr %15, align 8, !tbaa !71
  %114 = icmp ne ptr %113, null
  br i1 %114, label %115, label %127

115:                                              ; preds = %112
  %116 = load ptr, ptr %19, align 8, !tbaa !3
  %117 = load i32, ptr %18, align 4, !tbaa !15
  %118 = sext i32 %117 to i64
  %119 = call noalias ptr @CRYPTO_strndup(ptr noundef %116, i64 noundef %118, ptr noundef @.str, i32 noundef 865)
  %120 = load ptr, ptr %15, align 8, !tbaa !71
  store ptr %119, ptr %120, align 8, !tbaa !3
  %121 = load ptr, ptr %15, align 8, !tbaa !71
  %122 = load ptr, ptr %121, align 8, !tbaa !3
  %123 = icmp eq ptr %122, null
  br i1 %123, label %124, label %126

124:                                              ; preds = %115
  %125 = load ptr, ptr %19, align 8, !tbaa !3
  call void @CRYPTO_free(ptr noundef %125, ptr noundef @.str, i32 noundef 867)
  store i32 -1, ptr %8, align 4
  store i32 1, ptr %17, align 4
  br label %129

126:                                              ; preds = %115
  br label %127

127:                                              ; preds = %126, %112, %101
  %128 = load ptr, ptr %19, align 8, !tbaa !3
  call void @CRYPTO_free(ptr noundef %128, ptr noundef @.str, i32 noundef 871)
  store i32 0, ptr %17, align 4
  br label %129

129:                                              ; preds = %127, %124, %100
  call void @llvm.lifetime.end.p0(i64 8, ptr %19) #8
  call void @llvm.lifetime.end.p0(i64 4, ptr %18) #8
  %130 = load i32, ptr %17, align 4
  switch i32 %130, label %134 [
    i32 0, label %131
  ]

131:                                              ; preds = %129
  br label %132

132:                                              ; preds = %131, %94
  %133 = load i32, ptr %16, align 4, !tbaa !15
  store i32 %133, ptr %8, align 4
  store i32 1, ptr %17, align 4
  br label %134

134:                                              ; preds = %132, %129, %92, %39, %29
  call void @llvm.lifetime.end.p0(i64 4, ptr %16) #8
  %135 = load i32, ptr %8, align 4
  ret i32 %135
}