; Function Attrs: nounwind uwtable
define internal fastcc i32 @do_check_string(ptr noundef %0, i32 noundef %1, ptr noundef readonly captures(none) %2, i32 noundef %3, ptr noundef nonnull %4, i64 noundef %5, ptr noundef writeonly captures(address_is_null) %6) unnamed_addr #0 {
  %8 = alloca ptr, align 8
  %9 = getelementptr inbounds nuw i8, ptr %0, i64 8
  %10 = load ptr, ptr %9, align 8, !tbaa !39
  %.not = icmp eq ptr %10, null
  br i1 %.not, label %.thread, label %11

11:                                               ; preds = %7
  %12 = load i32, ptr %0, align 8, !tbaa !40
  %.not49 = icmp eq i32 %12, 0
  br i1 %.not49, label %.thread, label %13

13:                                               ; preds = %11
  %14 = icmp sgt i32 %1, 0
  br i1 %14, label %15, label %36

15:                                               ; preds = %13
  %16 = getelementptr inbounds nuw i8, ptr %0, i64 4
  %17 = load i32, ptr %16, align 4, !tbaa !16
  %.not50 = icmp eq i32 %1, %17
  br i1 %.not50, label %18, label %.thread

18:                                               ; preds = %15
  %19 = icmp eq i32 %1, 22
  br i1 %19, label %20, label %23

20:                                               ; preds = %18
  %21 = sext i32 %12 to i64
  %22 = tail call i32 %2(ptr noundef nonnull %10, i64 noundef %21, ptr noundef nonnull %4, i64 noundef %5, i32 noundef %3) #12, !callees !49
  br label %27

23:                                               ; preds = %18
  %24 = trunc i64 %5 to i32
  %25 = icmp eq i32 %12, %24
  br i1 %25, label %26, label %.thread

26:                                               ; preds = %23
  %bcmp = tail call i32 @bcmp(ptr nonnull %10, ptr nonnull %4, i64 %5)
  %.not51 = icmp eq i32 %bcmp, 0
  %spec.select = zext i1 %.not51 to i32
  br label %27

27:                                               ; preds = %26, %20
  %.041 = phi i32 [ %22, %20 ], [ %spec.select, %26 ]
  %28 = icmp sgt i32 %.041, 0
  %29 = icmp ne ptr %6, null
  %or.cond = and i1 %29, %28
  br i1 %or.cond, label %30, label %.thread

30:                                               ; preds = %27
  %31 = load ptr, ptr %9, align 8, !tbaa !39
  %32 = load i32, ptr %0, align 8, !tbaa !40
  %33 = sext i32 %32 to i64
  %34 = tail call noalias ptr @CRYPTO_strndup(ptr noundef %31, i64 noundef %33, ptr noundef nonnull @.str, i32 noundef 848) #12
  store ptr %34, ptr %6, align 8, !tbaa !48
  %35 = icmp eq ptr %34, null
  %spec.select57 = select i1 %35, i32 -1, i32 %.041
  br label %.thread

36:                                               ; preds = %13
  call void @llvm.lifetime.start.p0(i64 8, ptr nonnull %8) #12
  %37 = call i32 @ASN1_STRING_to_UTF8(ptr noundef nonnull %8, ptr noundef nonnull %0) #12
  %38 = icmp slt i32 %37, 0
  br i1 %38, label %.thread54, label %39

39:                                               ; preds = %36
  %40 = load ptr, ptr %8, align 8, !tbaa !48
  %41 = zext nneg i32 %37 to i64
  %42 = call i32 %2(ptr noundef %40, i64 noundef %41, ptr noundef nonnull %4, i64 noundef %5, i32 noundef %3) #12, !callees !49
  %43 = icmp sgt i32 %42, 0
  %44 = icmp ne ptr %6, null
  %or.cond3 = and i1 %44, %43
  br i1 %or.cond3, label %45, label %51

45:                                               ; preds = %39
  %46 = load ptr, ptr %8, align 8, !tbaa !48
  %47 = call noalias ptr @CRYPTO_strndup(ptr noundef %46, i64 noundef %41, ptr noundef nonnull @.str, i32 noundef 865) #12
  store ptr %47, ptr %6, align 8, !tbaa !48
  %48 = icmp eq ptr %47, null
  br i1 %48, label %49, label %51

49:                                               ; preds = %45
  %50 = load ptr, ptr %8, align 8, !tbaa !48
  call void @CRYPTO_free(ptr noundef %50, ptr noundef nonnull @.str, i32 noundef 867) #12
  br label %.thread54

.thread54:                                        ; preds = %49, %36
  call void @llvm.lifetime.end.p0(i64 8, ptr nonnull %8) #12
  br label %.thread

51:                                               ; preds = %39, %45
  %52 = load ptr, ptr %8, align 8, !tbaa !48
  call void @CRYPTO_free(ptr noundef %52, ptr noundef nonnull @.str, i32 noundef 871) #12
  call void @llvm.lifetime.end.p0(i64 8, ptr nonnull %8) #12
  br label %.thread

.thread:                                          ; preds = %30, %23, %27, %51, %.thread54, %15, %7, %11
  %.0 = phi i32 [ 0, %11 ], [ 0, %7 ], [ 0, %15 ], [ -1, %.thread54 ], [ %.041, %27 ], [ %42, %51 ], [ 0, %23 ], [ %spec.select57, %30 ]
  ret i32 %.0
}